; Function Attrs: nounwind uwtable
define ptr @l_Lean_Server_FileWorker_computeAbsoluteLspSemanticTokens___boxed(ptr noundef %0, ptr noundef %1, ptr noundef %2, ptr noundef %3) local_unnamed_addr #0 {
  %5 = getelementptr i8, ptr %3, i64 8
  %.val.i = load i64, ptr %5, align 8, !tbaa !4
  %6 = shl i64 %.val.i, 1
  %7 = or disjoint i64 %6, 1
  %8 = inttoptr i64 %7 to ptr
  %9 = tail call ptr @l_Array_filterMapM___at_Lean_Server_FileWorker_computeAbsoluteLspSemanticTokens___spec__1(ptr noundef %0, ptr noundef %1, ptr noundef %2, ptr noundef readonly %3, ptr noundef nonnull inttoptr (i64 1 to ptr), ptr noundef nonnull %8)
  %10 = ptrtoint ptr %3 to i64
  %11 = and i64 %10, 1
  %.not = icmp eq i64 %11, 0
  br i1 %.not, label %12, label %lean_dec.exit9

12:                                               ; preds = %4
  %13 = load i32, ptr %3, align 4, !tbaa !8
  %14 = icmp sgt i32 %13, 1
  br i1 %14, label %15, label %17, !prof !14

15:                                               ; preds = %12
  %16 = add nsw i32 %13, -1
  store i32 %16, ptr %3, align 4, !tbaa !8
  br label %lean_dec.exit9

17:                                               ; preds = %12
  %.not.i = icmp eq i32 %13, 0
  br i1 %.not.i, label %lean_dec.exit9, label %18

18:                                               ; preds = %17
  tail call void @lean_dec_ref_cold(ptr noundef nonnull %3) #7
  br label %lean_dec.exit9

lean_dec.exit9:                                   ; preds = %18, %17, %15, %4
  %19 = ptrtoint ptr %2 to i64
  %20 = and i64 %19, 1
  %.not14 = icmp eq i64 %20, 0
  br i1 %.not14, label %21, label %lean_dec.exit8

21:                                               ; preds = %lean_dec.exit9
  %22 = load i32, ptr %2, align 4, !tbaa !8
  %23 = icmp sgt i32 %22, 1
  br i1 %23, label %24, label %26, !prof !14

24:                                               ; preds = %21
  %25 = add nsw i32 %22, -1
  store i32 %25, ptr %2, align 4, !tbaa !8
  br label %lean_dec.exit8

26:                                               ; preds = %21
  %.not.i10 = icmp eq i32 %22, 0
  br i1 %.not.i10, label %lean_dec.exit8, label %27

27:                                               ; preds = %26
  tail call void @lean_dec_ref_cold(ptr noundef nonnull %2) #7
  br label %lean_dec.exit8

lean_dec.exit8:                                   ; preds = %27, %26, %24, %lean_dec.exit9
  %28 = ptrtoint ptr %1 to i64
  %29 = and i64 %28, 1
  %.not15 = icmp eq i64 %29, 0
  br i1 %.not15, label %30, label %lean_dec.exit

30:                                               ; preds = %lean_dec.exit8
  %31 = load i32, ptr %1, align 4, !tbaa !8
  %32 = icmp sgt i32 %31, 1
  br i1 %32, label %33, label %35, !prof !14

33:                                               ; preds = %30
  %34 = add nsw i32 %31, -1
  store i32 %34, ptr %1, align 4, !tbaa !8
  br label %lean_dec.exit

35:                                               ; preds = %30
  %.not.i12 = icmp eq i32 %31, 0
  br i1 %.not.i12, label %lean_dec.exit, label %36

36:                                               ; preds = %35
  tail call void @lean_dec_ref_cold(ptr noundef nonnull %1) #7
  br label %lean_dec.exit

lean_dec.exit:                                    ; preds = %36, %35, %33, %lean_dec.exit8
  ret ptr %9
}